target datalayout = "e-m:e-p270:32:32-p271:32:32-p272:64:64-i64:64-i128:128-f80:128-n8:16:32:64-S128"
target triple = "x86_64-pc-linux-gnu"

; Function Attrs: nounwind uwtable
define ptr @Kit_DsdWriteHex(ptr noundef %0, ptr noundef %1, i32 noundef %2) #0 {
  %4 = alloca ptr, align 8
  %5 = alloca ptr, align 8
  %6 = alloca i32, align 4
  %7 = alloca i32, align 4
  %8 = alloca i32, align 4
  %9 = alloca i32, align 4
  store ptr %0, ptr %4, align 8, !tbaa !54
  store ptr %1, ptr %5, align 8, !tbaa !25
  store i32 %2, ptr %6, align 4, !tbaa !3
  call void @llvm.lifetime.start.p0(i64 4, ptr %7) #9
  call void @llvm.lifetime.start.p0(i64 4, ptr %8) #9
  call void @llvm.lifetime.start.p0(i64 4, ptr %9) #9
  %10 = load i32, ptr %6, align 4, !tbaa !3
  %11 = shl i32 1, %10
  %12 = sdiv i32 %11, 4
  store i32 %12, ptr %7, align 4, !tbaa !3
  %13 = load i32, ptr %7, align 4, !tbaa !3
  %14 = sub nsw i32 %13, 1
  store i32 %14, ptr %9, align 4, !tbaa !3
  br label %15

15:                                               ; preds = %46, %3
  %16 = load i32, ptr %9, align 4, !tbaa !3
  %17 = icmp sge i32 %16, 0
  br i1 %17, label %18, label %49

18:                                               ; preds = %15
  %19 = load ptr, ptr %5, align 8, !tbaa !25
  %20 = load i32, ptr %9, align 4, !tbaa !3
  %21 = sdiv i32 %20, 8
  %22 = sext i32 %21 to i64
  %23 = getelementptr inbounds i32, ptr %19, i64 %22
  %24 = load i32, ptr %23, align 4, !tbaa !3
  %25 = load i32, ptr %9, align 4, !tbaa !3
  %26 = srem i32 %25, 8
  %27 = mul nsw i32 %26, 4
  %28 = lshr i32 %24, %27
  %29 = and i32 %28, 15
  store i32 %29, ptr %8, align 4, !tbaa !3
  %30 = load i32, ptr %8, align 4, !tbaa !3
  %31 = icmp slt i32 %30, 10
  br i1 %31, label %32, label %38

32:                                               ; preds = %18
  %33 = load i32, ptr %8, align 4, !tbaa !3
  %34 = add nsw i32 48, %33
  %35 = trunc i32 %34 to i8
  %36 = load ptr, ptr %4, align 8, !tbaa !54
  %37 = getelementptr inbounds nuw i8, ptr %36, i32 1
  store ptr %37, ptr %4, align 8, !tbaa !54
  store i8 %35, ptr %36, align 1, !tbaa !56
  br label %45

38:                                               ; preds = %18
  %39 = load i32, ptr %8, align 4, !tbaa !3
  %40 = add nsw i32 65, %39
  %41 = sub nsw i32 %40, 10
  %42 = trunc i32 %41 to i8
  %43 = load ptr, ptr %4, align 8, !tbaa !54
  %44 = getelementptr inbounds nuw i8, ptr %43, i32 1
  store ptr %44, ptr %4, align 8, !tbaa !54
  store i8 %42, ptr %43, align 1, !tbaa !56
  br label %45

45:                                               ; preds = %38, %32
  br label %46

46:                                               ; preds = %45
  %47 = load i32, ptr %9, align 4, !tbaa !3
  %48 = add nsw i32 %47, -1
  store i32 %48, ptr %9, align 4, !tbaa !3
  br label %15, !llvm.loop !57

49:                                               ; preds = %15
  %50 = load ptr, ptr %4, align 8, !tbaa !54
  call void @llvm.lifetime.end.p0(i64 4, ptr %9) #9
  call void @llvm.lifetime.end.p0(i64 4, ptr %8) #9
  call void @llvm.lifetime.end.p0(i64 4, ptr %7) #9
  ret ptr %50
}