; Function Attrs: nofree norecurse nosync nounwind memory(argmem: readwrite) uwtable
define ptr @Kit_DsdWriteHex(ptr noundef writeonly %0, ptr noundef readonly captures(none) %1, i32 noundef %2) local_unnamed_addr #12 {
  %4 = shl nuw i32 1, %2
  %5 = icmp sgt i32 %4, 3
  br i1 %5, label %.lr.ph.preheader, label %._crit_edge

.lr.ph.preheader:                                 ; preds = %3
  %6 = lshr i32 %4, 2
  br label %.lr.ph

.lr.ph:                                           ; preds = %.lr.ph.preheader, %.lr.ph
  %.0.in16 = phi i32 [ %.0, %.lr.ph ], [ %6, %.lr.ph.preheader ]
  %.01215 = phi ptr [ %.1, %.lr.ph ], [ %0, %.lr.ph.preheader ]
  %.0 = add nsw i32 %.0.in16, -1
  %7 = lshr i32 %.0, 3
  %8 = zext nneg i32 %7 to i64
  %9 = getelementptr inbounds nuw i32, ptr %1, i64 %8
  %10 = load i32, ptr %9, align 4, !tbaa !20
  %11 = shl i32 %.0, 2
  %12 = and i32 %11, 28
  %13 = lshr i32 %10, %12
  %14 = and i32 %13, 15
  %15 = icmp samesign ult i32 %14, 10
  %16 = trunc nuw nsw i32 %14 to i8
  %17 = add nuw nsw i8 %16, 55
  %18 = or disjoint i8 %16, 48
  %storemerge = select i1 %15, i8 %18, i8 %17
  %.1 = getelementptr inbounds nuw i8, ptr %.01215, i64 1
  store i8 %storemerge, ptr %.01215, align 1, !tbaa !47
  %19 = icmp samesign ugt i32 %.0.in16, 1
  br i1 %19, label %.lr.ph, label %._crit_edge, !llvm.loop !48

._crit_edge:                                      ; preds = %.lr.ph, %3
  %.012.lcssa = phi ptr [ %0, %3 ], [ %.1, %.lr.ph ]
  ret ptr %.012.lcssa
}